; Function Attrs: mustprogress uwtable
define void @_ZN6duckdb10NextMinuteERiS0_S0_S0_S0_(ptr noundef nonnull align 4 captures(none) dereferenceable(4) %0, ptr noundef nonnull align 4 captures(none) dereferenceable(4) %1, ptr noundef nonnull align 4 captures(none) dereferenceable(4) %2, ptr noundef nonnull align 4 captures(none) dereferenceable(4) %3, ptr noundef nonnull align 4 captures(none) dereferenceable(4) %4) local_unnamed_addr #0 {
  %6 = load i32, ptr %4, align 4, !tbaa !86
  %7 = add nsw i32 %6, 1
  store i32 %7, ptr %4, align 4, !tbaa !86
  %8 = icmp sgt i32 %6, 58
  br i1 %8, label %9, label %26

9:                                                ; preds = %5
  %10 = load i32, ptr %3, align 4, !tbaa !86
  %11 = add nsw i32 %10, 1
  store i32 %11, ptr %3, align 4, !tbaa !86
  %12 = icmp sgt i32 %10, 22
  br i1 %12, label %13, label %_ZN6duckdb8NextHourERiS0_S0_S0_.exit

13:                                               ; preds = %9
  %14 = load i32, ptr %2, align 4, !tbaa !86
  %15 = add nsw i32 %14, 1
  store i32 %15, ptr %2, align 4, !tbaa !86
  %16 = load i32, ptr %0, align 4, !tbaa !86
  %17 = load i32, ptr %1, align 4, !tbaa !86
  %18 = tail call noundef zeroext i1 @_ZN6duckdb4Date7IsValidEiii(i32 noundef %16, i32 noundef %17, i32 noundef %15)
  br i1 %18, label %_ZN6duckdb7NextDayERiS0_S0_.exit.i, label %19

19:                                               ; preds = %13
  %20 = load i32, ptr %1, align 4, !tbaa !86
  %21 = add nsw i32 %20, 1
  store i32 %21, ptr %1, align 4, !tbaa !86
  %22 = icmp eq i32 %21, 13
  br i1 %22, label %23, label %_ZN6duckdb9NextMonthERiS0_.exit.i.i

23:                                               ; preds = %19
  %24 = load i32, ptr %0, align 4, !tbaa !86
  %25 = add nsw i32 %24, 1
  store i32 %25, ptr %0, align 4, !tbaa !86
  store i32 1, ptr %1, align 4, !tbaa !86
  br label %_ZN6duckdb9NextMonthERiS0_.exit.i.i

_ZN6duckdb9NextMonthERiS0_.exit.i.i:              ; preds = %23, %19
  store i32 1, ptr %2, align 4, !tbaa !86
  br label %_ZN6duckdb7NextDayERiS0_S0_.exit.i

_ZN6duckdb7NextDayERiS0_S0_.exit.i:               ; preds = %_ZN6duckdb9NextMonthERiS0_.exit.i.i, %13
  store i32 0, ptr %3, align 4, !tbaa !86
  br label %_ZN6duckdb8NextHourERiS0_S0_S0_.exit

_ZN6duckdb8NextHourERiS0_S0_S0_.exit:             ; preds = %9, %_ZN6duckdb7NextDayERiS0_S0_.exit.i
  store i32 0, ptr %4, align 4, !tbaa !86
  br label %26

26:                                               ; preds = %_ZN6duckdb8NextHourERiS0_S0_S0_.exit, %5
  ret void
}